target datalayout = "e-m:e-p270:32:32-p271:32:32-p272:64:64-i64:64-i128:128-f80:128-n8:16:32:64-S128"
target triple = "x86_64-unknown-linux-gnu"

%"class.std::set.11" = type { %"class.std::_Rb_tree.12" }
%"class.std::_Rb_tree.12" = type { %"struct.std::_Rb_tree<QuantLib::Observer *, QuantLib::Observer *, std::_Identity<QuantLib::Observer *>, std::less<QuantLib::Observer *>>::_Rb_tree_impl" }
%"struct.std::_Rb_tree<QuantLib::Observer *, QuantLib::Observer *, std::_Identity<QuantLib::Observer *>, std::less<QuantLib::Observer *>>::_Rb_tree_impl" = type { [8 x i8], %"struct.std::_Rb_tree_header" }
%"struct.std::_Rb_tree_header" = type { %"struct.std::_Rb_tree_node_base", i64 }
%"struct.std::_Rb_tree_node_base" = type { i32, ptr, ptr, ptr }
%"class.boost::detail::shared_count" = type { ptr }
%"class.std::set" = type { %"class.std::_Rb_tree" }
%"class.std::_Rb_tree" = type { %"struct.std::_Rb_tree<boost::shared_ptr<QuantLib::Observable>, boost::shared_ptr<QuantLib::Observable>, std::_Identity<boost::shared_ptr<QuantLib::Observable>>, std::less<boost::shared_ptr<QuantLib::Observable>>>::_Rb_tree_impl" }
%"struct.std::_Rb_tree<boost::shared_ptr<QuantLib::Observable>, boost::shared_ptr<QuantLib::Observable>, std::_Identity<boost::shared_ptr<QuantLib::Observable>>, std::less<boost::shared_ptr<QuantLib::Observable>>>::_Rb_tree_impl" = type { [8 x i8], %"struct.std::_Rb_tree_header" }
%"class.QuantLib::Observable" = type { ptr, %"class.std::set.11" }
%"class.QuantLib::COSHestonEngine" = type { %"class.QuantLib::GenericModelEngine", double, i64, double, double, double, double, double }
%"class.QuantLib::GenericModelEngine" = type { %"class.QuantLib::GenericEngine", %"class.QuantLib::Handle" }
%"class.QuantLib::GenericEngine" = type { %"class.QuantLib::PricingEngine", %"class.QuantLib::Observer", %"class.QuantLib::Option::arguments", %"class.QuantLib::OneAssetOption::results" }
%"class.QuantLib::PricingEngine" = type { %"class.QuantLib::Observable" }
%"class.QuantLib::Observer" = type { ptr, %"class.std::set" }
%"class.QuantLib::Option::arguments" = type { %"class.QuantLib::PricingEngine::arguments", %"class.boost::shared_ptr.25", %"class.boost::shared_ptr.26" }
%"class.QuantLib::PricingEngine::arguments" = type { ptr }
%"class.boost::shared_ptr.25" = type { ptr, %"class.boost::detail::shared_count" }
%"class.boost::shared_ptr.26" = type { ptr, %"class.boost::detail::shared_count" }
%"class.QuantLib::OneAssetOption::results" = type { %"class.QuantLib::Instrument::results", %"class.QuantLib::Greeks", %"class.QuantLib::MoreGreeks" }
%"class.QuantLib::Instrument::results" = type { %"class.QuantLib::PricingEngine::results", double, double, %"class.QuantLib::Date", %"class.std::map" }
%"class.QuantLib::PricingEngine::results" = type { ptr }
%"class.QuantLib::Date" = type { i64 }
%"class.std::map" = type { %"class.std::_Rb_tree.19" }
%"class.std::_Rb_tree.19" = type { %"struct.std::_Rb_tree<std::__cxx11::basic_string<char>, std::pair<const std::__cxx11::basic_string<char>, boost::any>, std::_Select1st<std::pair<const std::__cxx11::basic_string<char>, boost::any>>, std::less<std::__cxx11::basic_string<char>>>::_Rb_tree_impl" }
%"struct.std::_Rb_tree<std::__cxx11::basic_string<char>, std::pair<const std::__cxx11::basic_string<char>, boost::any>, std::_Select1st<std::pair<const std::__cxx11::basic_string<char>, boost::any>>, std::less<std::__cxx11::basic_string<char>>>::_Rb_tree_impl" = type { [8 x i8], %"struct.std::_Rb_tree_header" }
%"class.QuantLib::Greeks" = type { %"class.QuantLib::PricingEngine::results", double, double, double, double, double, double }
%"class.QuantLib::MoreGreeks" = type { %"class.QuantLib::PricingEngine::results", double, double, double, double, double }
%"class.QuantLib::Handle" = type { %"class.boost::shared_ptr.27" }
%"class.boost::shared_ptr.27" = type { ptr, %"class.boost::detail::shared_count" }

; Function Attrs: inlinehint mustprogress nounwind uwtable
define linkonce_odr noundef double @_ZN8QuantLib7squaredIdEET_S1_(double noundef %x) #5 comdat {
entry:
  %x.addr = alloca double, align 8
  store double %x, ptr %x.addr, align 8, !tbaa !14
  %0 = load double, ptr %x.addr, align 8, !tbaa !14
  %1 = load double, ptr %x.addr, align 8, !tbaa !14
  %mul = fmul double %0, %1
  ret double %mul
}

; Function Attrs: mustprogress nounwind uwtable
define noundef double @_ZNK8QuantLib15COSHestonEngine2c2Ed(ptr noundef nonnull align 8 dereferenceable(408) %this, double noundef %t) #3 align 2 {
entry:
  %this.addr = alloca ptr, align 8
  %t.addr = alloca double, align 8
  %sigma2 = alloca double, align 8
  %kappa2 = alloca double, align 8
  %kappa3 = alloca double, align 8
  store ptr %this, ptr %this.addr, align 8, !tbaa !3
  store double %t, ptr %t.addr, align 8, !tbaa !14
  %this1 = load ptr, ptr %this.addr, align 8
  call void @llvm.lifetime.start.p0(i64 8, ptr %sigma2) #13
  %sigma_ = getelementptr inbounds nuw %"class.QuantLib::COSHestonEngine", ptr %this1, i32 0, i32 5
  %0 = load double, ptr %sigma_, align 8, !tbaa !56
  %sigma_2 = getelementptr inbounds nuw %"class.QuantLib::COSHestonEngine", ptr %this1, i32 0, i32 5
  %1 = load double, ptr %sigma_2, align 8, !tbaa !56
  %mul = fmul double %0, %1
  store double %mul, ptr %sigma2, align 8, !tbaa !14
  call void @llvm.lifetime.start.p0(i64 8, ptr %kappa2) #13
  %kappa_ = getelementptr inbounds nuw %"class.QuantLib::COSHestonEngine", ptr %this1, i32 0, i32 3
  %2 = load double, ptr %kappa_, align 8, !tbaa !54
  %kappa_3 = getelementptr inbounds nuw %"class.QuantLib::COSHestonEngine", ptr %this1, i32 0, i32 3
  %3 = load double, ptr %kappa_3, align 8, !tbaa !54
  %mul4 = fmul double %2, %3
  store double %mul4, ptr %kappa2, align 8, !tbaa !14
  call void @llvm.lifetime.start.p0(i64 8, ptr %kappa3) #13
  %4 = load double, ptr %kappa2, align 8, !tbaa !14
  %kappa_5 = getelementptr inbounds nuw %"class.QuantLib::COSHestonEngine", ptr %this1, i32 0, i32 3
  %5 = load double, ptr %kappa_5, align 8, !tbaa !54
  %mul6 = fmul double %4, %5
  store double %mul6, ptr %kappa3, align 8, !tbaa !14
  %6 = load double, ptr %sigma2, align 8, !tbaa !14
  %theta_ = getelementptr inbounds nuw %"class.QuantLib::COSHestonEngine", ptr %this1, i32 0, i32 4
  %7 = load double, ptr %theta_, align 8, !tbaa !55
  %v0_ = getelementptr inbounds nuw %"class.QuantLib::COSHestonEngine", ptr %this1, i32 0, i32 7
  %8 = load double, ptr %v0_, align 8, !tbaa !58
  %9 = call double @llvm.fmuladd.f64(double -2.000000e+00, double %8, double %7)
  %kappa_9 = getelementptr inbounds nuw %"class.QuantLib::COSHestonEngine", ptr %this1, i32 0, i32 3
  %10 = load double, ptr %kappa_9, align 8, !tbaa !54
  %mul10 = fmul double 2.000000e+00, %10
  %11 = load double, ptr %t.addr, align 8, !tbaa !14
  %mul11 = fmul double %mul10, %11
  %call = call double @exp(double noundef %mul11) #13, !tbaa !61
  %12 = load double, ptr %kappa3, align 8, !tbaa !14
  %mul12 = fmul double 8.000000e+00, %12
  %13 = load double, ptr %t.addr, align 8, !tbaa !14
  %mul13 = fmul double %mul12, %13
  %theta_14 = getelementptr inbounds nuw %"class.QuantLib::COSHestonEngine", ptr %this1, i32 0, i32 4
  %14 = load double, ptr %theta_14, align 8, !tbaa !55
  %15 = load double, ptr %kappa2, align 8, !tbaa !14
  %mul16 = fmul double 8.000000e+00, %15
  %theta_17 = getelementptr inbounds nuw %"class.QuantLib::COSHestonEngine", ptr %this1, i32 0, i32 4
  %16 = load double, ptr %theta_17, align 8, !tbaa !55
  %rho_ = getelementptr inbounds nuw %"class.QuantLib::COSHestonEngine", ptr %this1, i32 0, i32 6
  %17 = load double, ptr %rho_, align 8, !tbaa !57
  %sigma_18 = getelementptr inbounds nuw %"class.QuantLib::COSHestonEngine", ptr %this1, i32 0, i32 5
  %18 = load double, ptr %sigma_18, align 8, !tbaa !56
  %mul19 = fmul double %17, %18
  %19 = load double, ptr %t.addr, align 8, !tbaa !14
  %mul20 = fmul double %mul19, %19
  %theta_21 = getelementptr inbounds nuw %"class.QuantLib::COSHestonEngine", ptr %this1, i32 0, i32 4
  %20 = load double, ptr %theta_21, align 8, !tbaa !55
  %21 = call double @llvm.fmuladd.f64(double %mul20, double %20, double %16)
  %v0_23 = getelementptr inbounds nuw %"class.QuantLib::COSHestonEngine", ptr %this1, i32 0, i32 7
  %22 = load double, ptr %v0_23, align 8, !tbaa !58
  %sub = fsub double %21, %22
  %mul24 = fmul double %mul16, %sub
  %neg = fneg double %mul24
  %23 = call double @llvm.fmuladd.f64(double %mul13, double %14, double %neg)
  %24 = load double, ptr %sigma2, align 8, !tbaa !14
  %theta_25 = getelementptr inbounds nuw %"class.QuantLib::COSHestonEngine", ptr %this1, i32 0, i32 4
  %25 = load double, ptr %theta_25, align 8, !tbaa !55
  %v0_27 = getelementptr inbounds nuw %"class.QuantLib::COSHestonEngine", ptr %this1, i32 0, i32 7
  %26 = load double, ptr %v0_27, align 8, !tbaa !58
  %mul28 = fmul double 2.000000e+00, %26
  %27 = call double @llvm.fmuladd.f64(double -5.000000e+00, double %25, double %mul28)
  %28 = call double @llvm.fmuladd.f64(double %24, double %27, double %23)
  %kappa_30 = getelementptr inbounds nuw %"class.QuantLib::COSHestonEngine", ptr %this1, i32 0, i32 3
  %29 = load double, ptr %kappa_30, align 8, !tbaa !54
  %mul31 = fmul double 2.000000e+00, %29
  %sigma_32 = getelementptr inbounds nuw %"class.QuantLib::COSHestonEngine", ptr %this1, i32 0, i32 5
  %30 = load double, ptr %sigma_32, align 8, !tbaa !56
  %mul33 = fmul double %mul31, %30
  %rho_34 = getelementptr inbounds nuw %"class.QuantLib::COSHestonEngine", ptr %this1, i32 0, i32 6
  %31 = load double, ptr %rho_34, align 8, !tbaa !57
  %mul35 = fmul double 8.000000e+00, %31
  %theta_36 = getelementptr inbounds nuw %"class.QuantLib::COSHestonEngine", ptr %this1, i32 0, i32 4
  %32 = load double, ptr %theta_36, align 8, !tbaa !55
  %sigma_38 = getelementptr inbounds nuw %"class.QuantLib::COSHestonEngine", ptr %this1, i32 0, i32 5
  %33 = load double, ptr %sigma_38, align 8, !tbaa !56
  %34 = load double, ptr %t.addr, align 8, !tbaa !14
  %mul39 = fmul double %33, %34
  %theta_40 = getelementptr inbounds nuw %"class.QuantLib::COSHestonEngine", ptr %this1, i32 0, i32 4
  %35 = load double, ptr %theta_40, align 8, !tbaa !55
  %mul41 = fmul double %mul39, %35
  %36 = call double @llvm.fmuladd.f64(double %mul35, double %32, double %mul41)
  %rho_42 = getelementptr inbounds nuw %"class.QuantLib::COSHestonEngine", ptr %this1, i32 0, i32 6
  %37 = load double, ptr %rho_42, align 8, !tbaa !57
  %mul43 = fmul double 4.000000e+00, %37
  %v0_44 = getelementptr inbounds nuw %"class.QuantLib::COSHestonEngine", ptr %this1, i32 0, i32 7
  %38 = load double, ptr %v0_44, align 8, !tbaa !58
  %neg46 = fneg double %mul43
  %39 = call double @llvm.fmuladd.f64(double %neg46, double %38, double %36)
  %40 = call double @llvm.fmuladd.f64(double %mul33, double %39, double %28)
  %mul48 = fmul double %call, %40
  %41 = call double @llvm.fmuladd.f64(double %6, double %9, double %mul48)
  %kappa_49 = getelementptr inbounds nuw %"class.QuantLib::COSHestonEngine", ptr %this1, i32 0, i32 3
  %42 = load double, ptr %kappa_49, align 8, !tbaa !54
  %43 = load double, ptr %t.addr, align 8, !tbaa !14
  %mul50 = fmul double %42, %43
  %call51 = call double @exp(double noundef %mul50) #13, !tbaa !61
  %mul52 = fmul double 4.000000e+00, %call51
  %44 = load double, ptr %sigma2, align 8, !tbaa !14
  %theta_53 = getelementptr inbounds nuw %"class.QuantLib::COSHestonEngine", ptr %this1, i32 0, i32 4
  %45 = load double, ptr %theta_53, align 8, !tbaa !55
  %46 = load double, ptr %kappa2, align 8, !tbaa !14
  %mul55 = fmul double 2.000000e+00, %46
  %rho_56 = getelementptr inbounds nuw %"class.QuantLib::COSHestonEngine", ptr %this1, i32 0, i32 6
  %47 = load double, ptr %rho_56, align 8, !tbaa !57
  %sigma_57 = getelementptr inbounds nuw %"class.QuantLib::COSHestonEngine", ptr %this1, i32 0, i32 5
  %48 = load double, ptr %sigma_57, align 8, !tbaa !56
  %mul58 = fmul double %47, %48
  %49 = load double, ptr %t.addr, align 8, !tbaa !14
  %50 = call double @llvm.fmuladd.f64(double %mul58, double %49, double -1.000000e+00)
  %mul60 = fmul double %mul55, %50
  %theta_61 = getelementptr inbounds nuw %"class.QuantLib::COSHestonEngine", ptr %this1, i32 0, i32 4
  %51 = load double, ptr %theta_61, align 8, !tbaa !55
  %v0_62 = getelementptr inbounds nuw %"class.QuantLib::COSHestonEngine", ptr %this1, i32 0, i32 7
  %52 = load double, ptr %v0_62, align 8, !tbaa !58
  %sub63 = fsub double %51, %52
  %mul64 = fmul double %mul60, %sub63
  %neg65 = fneg double %mul64
  %53 = call double @llvm.fmuladd.f64(double %44, double %45, double %neg65)
  %kappa_66 = getelementptr inbounds nuw %"class.QuantLib::COSHestonEngine", ptr %this1, i32 0, i32 3
  %54 = load double, ptr %kappa_66, align 8, !tbaa !54
  %sigma_67 = getelementptr inbounds nuw %"class.QuantLib::COSHestonEngine", ptr %this1, i32 0, i32 5
  %55 = load double, ptr %sigma_67, align 8, !tbaa !56
  %mul68 = fmul double %54, %55
  %sigma_69 = getelementptr inbounds nuw %"class.QuantLib::COSHestonEngine", ptr %this1, i32 0, i32 5
  %56 = load double, ptr %sigma_69, align 8, !tbaa !56
  %57 = load double, ptr %t.addr, align 8, !tbaa !14
  %mul70 = fmul double %56, %57
  %theta_71 = getelementptr inbounds nuw %"class.QuantLib::COSHestonEngine", ptr %this1, i32 0, i32 4
  %58 = load double, ptr %theta_71, align 8, !tbaa !55
  %v0_72 = getelementptr inbounds nuw %"class.QuantLib::COSHestonEngine", ptr %this1, i32 0, i32 7
  %59 = load double, ptr %v0_72, align 8, !tbaa !58
  %sub73 = fsub double %58, %59
  %rho_75 = getelementptr inbounds nuw %"class.QuantLib::COSHestonEngine", ptr %this1, i32 0, i32 6
  %60 = load double, ptr %rho_75, align 8, !tbaa !57
  %mul76 = fmul double 2.000000e+00, %60
  %theta_77 = getelementptr inbounds nuw %"class.QuantLib::COSHestonEngine", ptr %this1, i32 0, i32 4
  %61 = load double, ptr %theta_77, align 8, !tbaa !55
  %v0_79 = getelementptr inbounds nuw %"class.QuantLib::COSHestonEngine", ptr %this1, i32 0, i32 7
  %62 = load double, ptr %v0_79, align 8, !tbaa !58
  %63 = call double @llvm.fmuladd.f64(double -2.000000e+00, double %61, double %62)
  %mul80 = fmul double %mul76, %63
  %64 = call double @llvm.fmuladd.f64(double %mul70, double %sub73, double %mul80)
  %65 = call double @llvm.fmuladd.f64(double %mul68, double %64, double %53)
  %66 = call double @llvm.fmuladd.f64(double %mul52, double %65, double %41)
  %kappa_83 = getelementptr inbounds nuw %"class.QuantLib::COSHestonEngine", ptr %this1, i32 0, i32 3
  %67 = load double, ptr %kappa_83, align 8, !tbaa !54
  %mul84 = fmul double 2.000000e+00, %67
  %68 = load double, ptr %t.addr, align 8, !tbaa !14
  %mul85 = fmul double %mul84, %68
  %call86 = call double @exp(double noundef %mul85) #13, !tbaa !61
  %mul87 = fmul double 8.000000e+00, %call86
  %69 = load double, ptr %kappa3, align 8, !tbaa !14
  %mul88 = fmul double %mul87, %69
  %div = fdiv double %66, %mul88
  call void @llvm.lifetime.end.p0(i64 8, ptr %kappa3) #13
  call void @llvm.lifetime.end.p0(i64 8, ptr %kappa2) #13
  call void @llvm.lifetime.end.p0(i64 8, ptr %sigma2) #13
  ret double %div
}

; Function Attrs: mustprogress uwtable
define noundef double @_ZNK8QuantLib15COSHestonEngine8kurtosisEd(ptr noundef nonnull align 8 dereferenceable(408) %this, double noundef %t) #1 align 2 {
entry:
  %this.addr = alloca ptr, align 8
  %t.addr = alloca double, align 8
  store ptr %this, ptr %this.addr, align 8, !tbaa !3
  store double %t, ptr %t.addr, align 8, !tbaa !14
  %this1 = load ptr, ptr %this.addr, align 8
  %0 = load double, ptr %t.addr, align 8, !tbaa !14
  %call = call noundef double @_ZNK8QuantLib15COSHestonEngine2c4Ed(ptr noundef nonnull align 8 dereferenceable(408) %this1, double noundef %0)
  %1 = load double, ptr %t.addr, align 8, !tbaa !14
  %call2 = call noundef double @_ZNK8QuantLib15COSHestonEngine2c2Ed(ptr noundef nonnull align 8 dereferenceable(408) %this1, double noundef %1)
  %call3 = call noundef double @_ZN8QuantLib7squaredIdEET_S1_(double noundef %call2)
  %div = fdiv double %call, %call3
  ret double %div
}